target datalayout = "e-m:e-p270:32:32-p271:32:32-p272:64:64-i64:64-i128:128-f80:128-n8:16:32:64-S128"
target triple = "x86_64-unknown-linux-gnu"

%"class.cvc5::internal::Minisat::vec.4" = type { ptr, i32, i32 }
%"class.cvc5::internal::EnvObj" = type { ptr, ptr }
%"class.std::unique_ptr" = type { %"struct.std::__uniq_ptr_data" }
%"struct.std::__uniq_ptr_data" = type { %"class.std::__uniq_ptr_impl" }
%"class.std::__uniq_ptr_impl" = type { %"class.std::tuple" }
%"class.std::tuple" = type { %"struct.std::_Tuple_impl" }
%"struct.std::_Tuple_impl" = type { %"struct.std::_Head_base.1" }
%"struct.std::_Head_base.1" = type { ptr }
%"class.cvc5::internal::Minisat::vec" = type { ptr, i32, i32 }
%"class.cvc5::internal::Minisat::vec.6" = type { ptr, i32, i32 }
%"class.cvc5::internal::Minisat::OccLists" = type { %"class.cvc5::internal::Minisat::vec.7", %"class.cvc5::internal::Minisat::vec.8", %"class.cvc5::internal::Minisat::vec.4", %"struct.cvc5::internal::Minisat::Solver::WatcherDeleted" }
%"class.cvc5::internal::Minisat::vec.7" = type { ptr, i32, i32 }
%"struct.cvc5::internal::Minisat::Solver::WatcherDeleted" = type { ptr }
%"class.cvc5::internal::Minisat::vec.3" = type { ptr, i32, i32 }
%"class.cvc5::internal::Minisat::vec.10" = type { ptr, i32, i32 }
%"class.cvc5::internal::Minisat::Heap" = type { %"struct.cvc5::internal::Minisat::Solver::VarOrderLt", %"class.cvc5::internal::Minisat::vec.9", %"class.cvc5::internal::Minisat::vec.9" }
%"struct.cvc5::internal::Minisat::Solver::VarOrderLt" = type { ptr }
%"class.cvc5::internal::Minisat::ClauseAllocator" = type { %"class.cvc5::internal::Minisat::RegionAllocator.base", i8, [3 x i8] }
%"class.cvc5::internal::Minisat::RegionAllocator.base" = type <{ ptr, i32, i32, i32 }>
%"class.cvc5::internal::Minisat::vec.2" = type { ptr, i32, i32 }
%"class.cvc5::internal::Minisat::vec.5" = type { ptr, i32, i32 }
%"class.cvc5::internal::Minisat::vec.9" = type { ptr, i32, i32 }
%"class.cvc5::internal::Minisat::vec.8" = type { ptr, i32, i32 }
%"class.cvc5::internal::Minisat::Solver" = type <{ %"class.cvc5::internal::EnvObj", ptr, ptr, i32, i32, i32, [4 x i8], %"class.std::unique_ptr", i8, [7 x i8], %"class.cvc5::internal::Minisat::vec", %"class.cvc5::internal::Minisat::vec.2", i8, i8, [6 x i8], %"class.cvc5::internal::Minisat::vec.3", %"class.cvc5::internal::Minisat::vec.4", i32, [4 x i8], double, double, double, double, i8, [3 x i8], i32, i32, i8, i8, [2 x i8], double, i32, [4 x i8], double, double, double, i32, [4 x i8], double, i64, i64, i64, i64, i64, i64, i64, i64, i64, i64, i64, i64, i8, [7 x i8], %"class.cvc5::internal::Minisat::vec.5", %"class.cvc5::internal::Minisat::vec.5", double, %"class.cvc5::internal::Minisat::vec.6", double, %"class.cvc5::internal::Minisat::OccLists", %"class.cvc5::internal::Minisat::vec.3", %"class.cvc5::internal::Minisat::vec.9", %"class.cvc5::internal::Minisat::vec.8", %"class.cvc5::internal::Minisat::vec.8", %"class.cvc5::internal::Minisat::vec.9", %"class.cvc5::internal::Minisat::vec.4", %"class.cvc5::internal::Minisat::vec.9", %"class.cvc5::internal::Minisat::vec.2", %"class.cvc5::internal::Minisat::vec.10", i32, i32, i64, %"class.cvc5::internal::Minisat::vec.4", %"class.cvc5::internal::Minisat::Heap", double, i8, [7 x i8], %"class.cvc5::internal::Minisat::ClauseAllocator", %"class.cvc5::internal::Minisat::vec.2", %"class.cvc5::internal::Minisat::vec.8", %"class.cvc5::internal::Minisat::vec.4", %"class.cvc5::internal::Minisat::vec.4", %"class.cvc5::internal::Minisat::vec.4", double, double, i32, [4 x i8], i64, i64, i8, i8, [6 x i8] }>
%"class.cvc5::internal::Minisat::RegionAllocator" = type <{ ptr, i32, i32, i32, [4 x i8] }>

@.str.25 = private unnamed_addr constant [65 x i8] c"|  Garbage collection:   %12d bytes => %12d bytes             |\0A\00", align 1

; Function Attrs: mustprogress nounwind uwtable
define linkonce_odr hidden void @_ZN4cvc58internal7Minisat15RegionAllocatorIjE6moveToERS3_(ptr noundef nonnull align 8 dereferenceable(20) %this, ptr noundef nonnull align 8 dereferenceable(20) %to) #4 comdat align 2 {
entry:
  %this.addr = alloca ptr, align 8
  %to.addr = alloca ptr, align 8
  store ptr %this, ptr %this.addr, align 8
  store ptr %to, ptr %to.addr, align 8
  %this1 = load ptr, ptr %this.addr, align 8
  %0 = load ptr, ptr %to.addr, align 8
  %memory = getelementptr inbounds %"class.cvc5::internal::Minisat::RegionAllocator", ptr %0, i32 0, i32 0
  %1 = load ptr, ptr %memory, align 8
  %cmp = icmp ne ptr %1, null
  br i1 %cmp, label %if.then, label %if.end

if.then:                                          ; preds = %entry
  %2 = load ptr, ptr %to.addr, align 8
  %memory2 = getelementptr inbounds %"class.cvc5::internal::Minisat::RegionAllocator", ptr %2, i32 0, i32 0
  %3 = load ptr, ptr %memory2, align 8
  call void @free(ptr noundef %3) #3
  br label %if.end

if.end:                                           ; preds = %if.then, %entry
  %memory3 = getelementptr inbounds %"class.cvc5::internal::Minisat::RegionAllocator", ptr %this1, i32 0, i32 0
  %4 = load ptr, ptr %memory3, align 8
  %5 = load ptr, ptr %to.addr, align 8
  %memory4 = getelementptr inbounds %"class.cvc5::internal::Minisat::RegionAllocator", ptr %5, i32 0, i32 0
  store ptr %4, ptr %memory4, align 8
  %sz = getelementptr inbounds %"class.cvc5::internal::Minisat::RegionAllocator", ptr %this1, i32 0, i32 1
  %6 = load i32, ptr %sz, align 8
  %7 = load ptr, ptr %to.addr, align 8
  %sz5 = getelementptr inbounds %"class.cvc5::internal::Minisat::RegionAllocator", ptr %7, i32 0, i32 1
  store i32 %6, ptr %sz5, align 8
  %cap = getelementptr inbounds %"class.cvc5::internal::Minisat::RegionAllocator", ptr %this1, i32 0, i32 2
  %8 = load i32, ptr %cap, align 4
  %9 = load ptr, ptr %to.addr, align 8
  %cap6 = getelementptr inbounds %"class.cvc5::internal::Minisat::RegionAllocator", ptr %9, i32 0, i32 2
  store i32 %8, ptr %cap6, align 4
  %wasted_ = getelementptr inbounds %"class.cvc5::internal::Minisat::RegionAllocator", ptr %this1, i32 0, i32 3
  %10 = load i32, ptr %wasted_, align 8
  %11 = load ptr, ptr %to.addr, align 8
  %wasted_7 = getelementptr inbounds %"class.cvc5::internal::Minisat::RegionAllocator", ptr %11, i32 0, i32 3
  store i32 %10, ptr %wasted_7, align 8
  %memory8 = getelementptr inbounds %"class.cvc5::internal::Minisat::RegionAllocator", ptr %this1, i32 0, i32 0
  store ptr null, ptr %memory8, align 8
  %wasted_9 = getelementptr inbounds %"class.cvc5::internal::Minisat::RegionAllocator", ptr %this1, i32 0, i32 3
  store i32 0, ptr %wasted_9, align 8
  %cap10 = getelementptr inbounds %"class.cvc5::internal::Minisat::RegionAllocator", ptr %this1, i32 0, i32 2
  store i32 0, ptr %cap10, align 4
  %sz11 = getelementptr inbounds %"class.cvc5::internal::Minisat::RegionAllocator", ptr %this1, i32 0, i32 1
  store i32 0, ptr %sz11, align 8
  ret void
}

; Function Attrs: mustprogress nounwind uwtable
define linkonce_odr hidden void @_ZN4cvc58internal7Minisat15RegionAllocatorIjED2Ev(ptr noundef nonnull align 8 dereferenceable(20) %this) unnamed_addr #4 comdat align 2 {
entry:
  %this.addr = alloca ptr, align 8
  store ptr %this, ptr %this.addr, align 8
  %this1 = load ptr, ptr %this.addr, align 8
  %memory = getelementptr inbounds %"class.cvc5::internal::Minisat::RegionAllocator", ptr %this1, i32 0, i32 0
  %0 = load ptr, ptr %memory, align 8
  %cmp = icmp ne ptr %0, null
  br i1 %cmp, label %if.then, label %if.end

if.then:                                          ; preds = %entry
  %memory2 = getelementptr inbounds %"class.cvc5::internal::Minisat::RegionAllocator", ptr %this1, i32 0, i32 0
  %1 = load ptr, ptr %memory2, align 8
  call void @free(ptr noundef %1) #3
  br label %if.end

if.end:                                           ; preds = %if.then, %entry
  ret void
}

; Function Attrs: mustprogress uwtable
define linkonce_odr hidden void @_ZN4cvc58internal7Minisat15RegionAllocatorIjEC2Ej(ptr noundef nonnull align 8 dereferenceable(20) %this, i32 noundef %start_cap) unnamed_addr #5 comdat align 2 {
entry:
  %this.addr = alloca ptr, align 8
  %start_cap.addr = alloca i32, align 4
  store ptr %this, ptr %this.addr, align 8
  store i32 %start_cap, ptr %start_cap.addr, align 4
  %this1 = load ptr, ptr %this.addr, align 8
  %memory = getelementptr inbounds %"class.cvc5::internal::Minisat::RegionAllocator", ptr %this1, i32 0, i32 0
  store ptr null, ptr %memory, align 8
  %sz = getelementptr inbounds %"class.cvc5::internal::Minisat::RegionAllocator", ptr %this1, i32 0, i32 1
  store i32 0, ptr %sz, align 8
  %cap = getelementptr inbounds %"class.cvc5::internal::Minisat::RegionAllocator", ptr %this1, i32 0, i32 2
  store i32 0, ptr %cap, align 4
  %wasted_ = getelementptr inbounds %"class.cvc5::internal::Minisat::RegionAllocator", ptr %this1, i32 0, i32 3
  store i32 0, ptr %wasted_, align 8
  %0 = load i32, ptr %start_cap.addr, align 4
  call void @_ZN4cvc58internal7Minisat15RegionAllocatorIjE8capacityEj(ptr noundef nonnull align 8 dereferenceable(20) %this1, i32 noundef %0)
  ret void
}

; Function Attrs: mustprogress uwtable
define linkonce_odr hidden void @_ZN4cvc58internal7Minisat15ClauseAllocator6moveToERS2_(ptr noundef nonnull align 8 dereferenceable(21) %this, ptr noundef nonnull align 8 dereferenceable(21) %to) #5 comdat align 2 {
entry:
  %this.addr = alloca ptr, align 8
  %to.addr = alloca ptr, align 8
  store ptr %this, ptr %this.addr, align 8
  store ptr %to, ptr %to.addr, align 8
  %this1 = load ptr, ptr %this.addr, align 8
  %extra_clause_field = getelementptr inbounds %"class.cvc5::internal::Minisat::ClauseAllocator", ptr %this1, i32 0, i32 1
  %0 = load i8, ptr %extra_clause_field, align 4
  %tobool = trunc i8 %0 to i1
  %1 = load ptr, ptr %to.addr, align 8
  %extra_clause_field2 = getelementptr inbounds %"class.cvc5::internal::Minisat::ClauseAllocator", ptr %1, i32 0, i32 1
  %frombool = zext i1 %tobool to i8
  store i8 %frombool, ptr %extra_clause_field2, align 4
  %2 = load ptr, ptr %to.addr, align 8
  call void @_ZN4cvc58internal7Minisat15RegionAllocatorIjE6moveToERS3_(ptr noundef nonnull align 8 dereferenceable(20) %this1, ptr noundef nonnull align 8 dereferenceable(20) %2)
  ret void
}

; Function Attrs: mustprogress nounwind uwtable
define linkonce_odr hidden void @_ZN4cvc58internal7Minisat15ClauseAllocatorD2Ev(ptr noundef nonnull align 8 dereferenceable(21) %this) unnamed_addr #4 comdat align 2 {
entry:
  %this.addr = alloca ptr, align 8
  store ptr %this, ptr %this.addr, align 8
  %this1 = load ptr, ptr %this.addr, align 8
  call void @_ZN4cvc58internal7Minisat15RegionAllocatorIjED2Ev(ptr noundef nonnull align 8 dereferenceable(20) %this1) #3
  ret void
}

; Function Attrs: mustprogress uwtable
define linkonce_odr hidden void @_ZN4cvc58internal7Minisat15ClauseAllocatorC2Ej(ptr noundef nonnull align 8 dereferenceable(21) %this, i32 noundef %start_cap) unnamed_addr #5 comdat align 2 {
entry:
  %this.addr = alloca ptr, align 8
  %start_cap.addr = alloca i32, align 4
  store ptr %this, ptr %this.addr, align 8
  store i32 %start_cap, ptr %start_cap.addr, align 4
  %this1 = load ptr, ptr %this.addr, align 8
  %0 = load i32, ptr %start_cap.addr, align 4
  call void @_ZN4cvc58internal7Minisat15RegionAllocatorIjEC2Ej(ptr noundef nonnull align 8 dereferenceable(20) %this1, i32 noundef %0)
  %extra_clause_field = getelementptr inbounds %"class.cvc5::internal::Minisat::ClauseAllocator", ptr %this1, i32 0, i32 1
  store i8 0, ptr %extra_clause_field, align 4
  ret void
}

; Function Attrs: mustprogress nounwind uwtable
define linkonce_odr hidden noundef i32 @_ZNK4cvc58internal7Minisat15RegionAllocatorIjE6wastedEv(ptr noundef nonnull align 8 dereferenceable(20) %this) #4 comdat align 2 {
entry:
  %this.addr = alloca ptr, align 8
  store ptr %this, ptr %this.addr, align 8
  %this1 = load ptr, ptr %this.addr, align 8
  %wasted_ = getelementptr inbounds %"class.cvc5::internal::Minisat::RegionAllocator", ptr %this1, i32 0, i32 3
  %0 = load i32, ptr %wasted_, align 8
  ret i32 %0
}

; Function Attrs: mustprogress nounwind uwtable
define linkonce_odr hidden noundef i32 @_ZNK4cvc58internal7Minisat15RegionAllocatorIjE4sizeEv(ptr noundef nonnull align 8 dereferenceable(20) %this) #4 comdat align 2 {
entry:
  %this.addr = alloca ptr, align 8
  store ptr %this, ptr %this.addr, align 8
  %this1 = load ptr, ptr %this.addr, align 8
  %sz = getelementptr inbounds %"class.cvc5::internal::Minisat::RegionAllocator", ptr %this1, i32 0, i32 1
  %0 = load i32, ptr %sz, align 8
  ret i32 %0
}

; Function Attrs: mustprogress uwtable
define hidden void @_ZN4cvc58internal7Minisat10SimpSolver14garbageCollectEv(ptr noundef nonnull align 8 dereferenceable(1108) %this) unnamed_addr #5 align 2 personality ptr @__gxx_personality_v0 {
entry:
  %this.addr = alloca ptr, align 8
  %to = alloca %"class.cvc5::internal::Minisat::ClauseAllocator", align 8
  %exn.slot = alloca ptr, align 8
  %ehselector.slot = alloca i32, align 4
  store ptr %this, ptr %this.addr, align 8
  %this1 = load ptr, ptr %this.addr, align 8
  %ca = getelementptr inbounds %"class.cvc5::internal::Minisat::Solver", ptr %this1, i32 0, i32 76
  %call = call noundef i32 @_ZNK4cvc58internal7Minisat15RegionAllocatorIjE4sizeEv(ptr noundef nonnull align 8 dereferenceable(20) %ca)
  %ca2 = getelementptr inbounds %"class.cvc5::internal::Minisat::Solver", ptr %this1, i32 0, i32 76
  %call3 = call noundef i32 @_ZNK4cvc58internal7Minisat15RegionAllocatorIjE6wastedEv(ptr noundef nonnull align 8 dereferenceable(20) %ca2)
  %sub = sub i32 %call, %call3
  call void @_ZN4cvc58internal7Minisat15ClauseAllocatorC2Ej(ptr noundef nonnull align 8 dereferenceable(21) %to, i32 noundef %sub)
  invoke void @_ZN4cvc58internal7Minisat10SimpSolver14cleanUpClausesEv(ptr noundef nonnull align 8 dereferenceable(1108) %this1)
          to label %invoke.cont unwind label %lpad

invoke.cont:                                      ; preds = %entry
  %ca4 = getelementptr inbounds %"class.cvc5::internal::Minisat::Solver", ptr %this1, i32 0, i32 76
  %extra_clause_field = getelementptr inbounds %"class.cvc5::internal::Minisat::ClauseAllocator", ptr %ca4, i32 0, i32 1
  %0 = load i8, ptr %extra_clause_field, align 4
  %tobool = trunc i8 %0 to i1
  %extra_clause_field5 = getelementptr inbounds %"class.cvc5::internal::Minisat::ClauseAllocator", ptr %to, i32 0, i32 1
  %frombool = zext i1 %tobool to i8
  store i8 %frombool, ptr %extra_clause_field5, align 4
  invoke void @_ZN4cvc58internal7Minisat10SimpSolver8relocAllERNS1_15ClauseAllocatorE(ptr noundef nonnull align 8 dereferenceable(1108) %this1, ptr noundef nonnull align 8 dereferenceable(21) %to)
          to label %invoke.cont6 unwind label %lpad

invoke.cont6:                                     ; preds = %invoke.cont
  invoke void @_ZN4cvc58internal7Minisat6Solver8relocAllERNS1_15ClauseAllocatorE(ptr noundef nonnull align 8 dereferenceable(850) %this1, ptr noundef nonnull align 8 dereferenceable(21) %to)
          to label %invoke.cont7 unwind label %lpad

invoke.cont7:                                     ; preds = %invoke.cont6
  %verbosity = getelementptr inbounds %"class.cvc5::internal::Minisat::Solver", ptr %this1, i32 0, i32 17
  %1 = load i32, ptr %verbosity, align 8
  %cmp = icmp sge i32 %1, 2
  br i1 %cmp, label %if.then, label %if.end

if.then:                                          ; preds = %invoke.cont7
  %ca8 = getelementptr inbounds %"class.cvc5::internal::Minisat::Solver", ptr %this1, i32 0, i32 76
  %call10 = invoke noundef i32 @_ZNK4cvc58internal7Minisat15RegionAllocatorIjE4sizeEv(ptr noundef nonnull align 8 dereferenceable(20) %ca8)
          to label %invoke.cont9 unwind label %lpad

invoke.cont9:                                     ; preds = %if.then
  %mul = mul i32 %call10, 4
  %call12 = invoke noundef i32 @_ZNK4cvc58internal7Minisat15RegionAllocatorIjE4sizeEv(ptr noundef nonnull align 8 dereferenceable(20) %to)
          to label %invoke.cont11 unwind label %lpad

invoke.cont11:                                    ; preds = %invoke.cont9
  %mul13 = mul i32 %call12, 4
  %call15 = invoke i32 (ptr, ...) @printf(ptr noundef @.str.25, i32 noundef %mul, i32 noundef %mul13)
          to label %invoke.cont14 unwind label %lpad

invoke.cont14:                                    ; preds = %invoke.cont11
  br label %if.end

lpad:                                             ; preds = %if.end, %invoke.cont11, %invoke.cont9, %if.then, %invoke.cont6, %invoke.cont, %entry
  %2 = landingpad { ptr, i32 }
          cleanup
  %3 = extractvalue { ptr, i32 } %2, 0
  store ptr %3, ptr %exn.slot, align 8
  %4 = extractvalue { ptr, i32 } %2, 1
  store i32 %4, ptr %ehselector.slot, align 4
  call void @_ZN4cvc58internal7Minisat15ClauseAllocatorD2Ev(ptr noundef nonnull align 8 dereferenceable(21) %to) #3
  br label %eh.resume

if.end:                                           ; preds = %invoke.cont14, %invoke.cont7
  %ca16 = getelementptr inbounds %"class.cvc5::internal::Minisat::Solver", ptr %this1, i32 0, i32 76
  invoke void @_ZN4cvc58internal7Minisat15ClauseAllocator6moveToERS2_(ptr noundef nonnull align 8 dereferenceable(21) %to, ptr noundef nonnull align 8 dereferenceable(21) %ca16)
          to label %invoke.cont17 unwind label %lpad

invoke.cont17:                                    ; preds = %if.end
  call void @_ZN4cvc58internal7Minisat15ClauseAllocatorD2Ev(ptr noundef nonnull align 8 dereferenceable(21) %to) #3
  ret void

eh.resume:                                        ; preds = %lpad
  %exn = load ptr, ptr %exn.slot, align 8
  %sel = load i32, ptr %ehselector.slot, align 4
  %lpad.val = insertvalue { ptr, i32 } poison, ptr %exn, 0
  %lpad.val18 = insertvalue { ptr, i32 } %lpad.val, i32 %sel, 1
  resume { ptr, i32 } %lpad.val18
}