; Function Attrs: mustprogress uwtable
define hidden void @_ZN4cvc58internal7Minisat10SimpSolver14garbageCollectEv(ptr noundef nonnull align 8 dereferenceable(1108) %this) unnamed_addr #4 align 2 personality ptr @__gxx_personality_v0 {
entry:
  %to = alloca %"class.cvc5::internal::Minisat::ClauseAllocator", align 8
  %ca = getelementptr inbounds i8, ptr %this, i64 704
  %sz.i = getelementptr inbounds i8, ptr %this, i64 712
  %0 = load i32, ptr %sz.i, align 8
  %wasted_.i = getelementptr inbounds i8, ptr %this, i64 720
  %1 = load i32, ptr %wasted_.i, align 8
  %sub = sub i32 %0, %1
  call void @llvm.memset.p0.i64(ptr noundef nonnull align 8 dereferenceable(20) %to, i8 0, i64 20, i1 false)
  call void @_ZN4cvc58internal7Minisat15RegionAllocatorIjE8capacityEj(ptr noundef nonnull align 8 dereferenceable(20) %to, i32 noundef %sub)
  %extra_clause_field.i = getelementptr inbounds i8, ptr %to, i64 20
  store i8 0, ptr %extra_clause_field.i, align 4
  call void @_ZN4cvc58internal7Minisat10SimpSolver14cleanUpClausesEv(ptr noundef nonnull align 8 dereferenceable(1108) %this)
  %extra_clause_field = getelementptr inbounds i8, ptr %this, i64 724
  %2 = load i8, ptr %extra_clause_field, align 4
  %3 = and i8 %2, 1
  store i8 %3, ptr %extra_clause_field.i, align 4
  invoke void @_ZN4cvc58internal7Minisat10SimpSolver8relocAllERNS1_15ClauseAllocatorE(ptr noundef nonnull align 8 dereferenceable(1108) %this, ptr noundef nonnull align 8 dereferenceable(21) %to)
          to label %invoke.cont6 unwind label %lpad

invoke.cont6:                                     ; preds = %entry
  invoke void @_ZN4cvc58internal7Minisat6Solver8relocAllERNS1_15ClauseAllocatorE(ptr noundef nonnull align 8 dereferenceable(850) %this, ptr noundef nonnull align 8 dereferenceable(21) %to)
          to label %invoke.cont7 unwind label %lpad

invoke.cont7:                                     ; preds = %invoke.cont6
  %verbosity = getelementptr inbounds i8, ptr %this, i64 136
  %4 = load i32, ptr %verbosity, align 8
  %cmp = icmp sgt i32 %4, 1
  br i1 %cmp, label %if.then, label %if.end

if.then:                                          ; preds = %invoke.cont7
  %5 = load i32, ptr %sz.i, align 8
  %mul = shl i32 %5, 2
  %sz.i2 = getelementptr inbounds i8, ptr %to, i64 8
  %6 = load i32, ptr %sz.i2, align 8
  %mul13 = shl i32 %6, 2
  %call15 = call i32 (ptr, ...) @printf(ptr noundef nonnull dereferenceable(1) @.str.25, i32 noundef %mul, i32 noundef %mul13)
  br label %if.end

lpad:                                             ; preds = %invoke.cont6, %entry
  %7 = landingpad { ptr, i32 }
          cleanup
  %8 = load ptr, ptr %to, align 8
  %cmp.not.i.i = icmp eq ptr %8, null
  br i1 %cmp.not.i.i, label %_ZN4cvc58internal7Minisat15ClauseAllocatorD2Ev.exit, label %if.then.i.i

if.then.i.i:                                      ; preds = %lpad
  call void @free(ptr noundef nonnull %8) #25
  br label %_ZN4cvc58internal7Minisat15ClauseAllocatorD2Ev.exit

_ZN4cvc58internal7Minisat15ClauseAllocatorD2Ev.exit: ; preds = %lpad, %if.then.i.i
  resume { ptr, i32 } %7

if.end:                                           ; preds = %if.then, %invoke.cont7
  %9 = load i8, ptr %extra_clause_field.i, align 4
  %10 = and i8 %9, 1
  store i8 %10, ptr %extra_clause_field, align 4
  %11 = load ptr, ptr %ca, align 8
  %cmp.not.i.i4 = icmp eq ptr %11, null
  br i1 %cmp.not.i.i4, label %_ZN4cvc58internal7Minisat15ClauseAllocatorD2Ev.exit8, label %if.then.i.i5

if.then.i.i5:                                     ; preds = %if.end
  call void @free(ptr noundef nonnull %11) #25
  br label %_ZN4cvc58internal7Minisat15ClauseAllocatorD2Ev.exit8

_ZN4cvc58internal7Minisat15ClauseAllocatorD2Ev.exit8: ; preds = %if.end, %if.then.i.i5
  %12 = load ptr, ptr %to, align 8
  store ptr %12, ptr %ca, align 8
  %sz.i.i = getelementptr inbounds i8, ptr %to, i64 8
  %13 = load <2 x i32>, ptr %sz.i.i, align 8
  store <2 x i32> %13, ptr %sz.i, align 8
  %wasted_.i.i = getelementptr inbounds i8, ptr %to, i64 16
  %14 = load i32, ptr %wasted_.i.i, align 8
  store i32 %14, ptr %wasted_.i, align 8
  ret void
}